; Function Attrs: mustprogress uwtable
define internal fastcc void @_ZN2cv5utils10BufferArea8allocateIN12_GLOBAL__N_16Node1DEEEvRPT_mt(ptr noundef nonnull align 8 dereferenceable(41) %0, ptr noundef nonnull align 8 dereferenceable(8) %1, i64 noundef %2) unnamed_addr #0 align 2 personality ptr @__gxx_personality_v0 {
  %4 = alloca %"class.std::__cxx11::basic_string", align 8
  %5 = alloca %"class.std::allocator", align 1
  %6 = alloca %"class.std::__cxx11::basic_string", align 8
  %7 = alloca %"class.std::allocator", align 1
  %8 = alloca %"class.std::__cxx11::basic_string", align 8
  %9 = alloca %"class.std::allocator", align 1
  %10 = load ptr, ptr %1, align 8
  %11 = icmp eq ptr %10, null
  br i1 %11, label %19, label %12

12:                                               ; preds = %3
  call void @_ZNSaIcEC1Ev(ptr noundef nonnull align 1 dereferenceable(1) %5) #16
  invoke void @_ZNSt7__cxx1112basic_stringIcSt11char_traitsIcESaIcEEC1EPKcRKS3_(ptr noundef nonnull align 8 dereferenceable(32) %4, ptr noundef nonnull @.str.27, ptr noundef nonnull align 1 dereferenceable(1) %5)
          to label %13 unwind label %15

13:                                               ; preds = %12
  invoke void @_ZN2cv5errorEiRKNSt7__cxx1112basic_stringIcSt11char_traitsIcESaIcEEEPKcS9_i(i32 noundef -215, ptr noundef nonnull align 8 dereferenceable(32) %4, ptr noundef nonnull @__func__._ZN2cv5utils10BufferArea8allocateIiEEvRPT_mt, ptr noundef nonnull @.str.28, i32 noundef 69) #15
          to label %14 unwind label %17

14:                                               ; preds = %13
  unreachable

15:                                               ; preds = %12
  %16 = landingpad { ptr, i32 }
          cleanup
  br label %40

17:                                               ; preds = %13
  %18 = landingpad { ptr, i32 }
          cleanup
  call void @_ZNSt7__cxx1112basic_stringIcSt11char_traitsIcESaIcEED1Ev(ptr noundef nonnull align 8 dereferenceable(32) %4) #16
  br label %40

19:                                               ; preds = %3
  %.not = icmp eq i64 %2, 0
  br i1 %.not, label %20, label %27

20:                                               ; preds = %19
  call void @_ZNSaIcEC1Ev(ptr noundef nonnull align 1 dereferenceable(1) %7) #16
  invoke void @_ZNSt7__cxx1112basic_stringIcSt11char_traitsIcESaIcEEC1EPKcRKS3_(ptr noundef nonnull align 8 dereferenceable(32) %6, ptr noundef nonnull @.str.29, ptr noundef nonnull align 1 dereferenceable(1) %7)
          to label %21 unwind label %23

21:                                               ; preds = %20
  invoke void @_ZN2cv5errorEiRKNSt7__cxx1112basic_stringIcSt11char_traitsIcESaIcEEEPKcS9_i(i32 noundef -215, ptr noundef nonnull align 8 dereferenceable(32) %6, ptr noundef nonnull @__func__._ZN2cv5utils10BufferArea8allocateIiEEvRPT_mt, ptr noundef nonnull @.str.28, i32 noundef 70) #15
          to label %22 unwind label %25

22:                                               ; preds = %21
  unreachable

23:                                               ; preds = %20
  %24 = landingpad { ptr, i32 }
          cleanup
  br label %40

25:                                               ; preds = %21
  %26 = landingpad { ptr, i32 }
          cleanup
  call void @_ZNSt7__cxx1112basic_stringIcSt11char_traitsIcESaIcEED1Ev(ptr noundef nonnull align 8 dereferenceable(32) %6) #16
  br label %40

27:                                               ; preds = %19
  tail call void @_ZN2cv5utils10BufferArea9allocate_EPPvtmt(ptr noundef nonnull align 8 dereferenceable(41) %0, ptr noundef nonnull %1, i16 noundef zeroext 16, i64 noundef %2, i16 noundef zeroext 64)
  %28 = getelementptr inbounds i8, ptr %0, i64 40
  %29 = load i8, ptr %28, align 8
  %30 = trunc i8 %29 to i1
  %31 = load ptr, ptr %1, align 8
  %.not24 = icmp eq ptr %31, null
  %or.cond = select i1 %30, i1 %.not24, i1 false
  br i1 %or.cond, label %32, label %39

32:                                               ; preds = %27
  call void @_ZNSaIcEC1Ev(ptr noundef nonnull align 1 dereferenceable(1) %9) #16
  invoke void @_ZNSt7__cxx1112basic_stringIcSt11char_traitsIcESaIcEEC1EPKcRKS3_(ptr noundef nonnull align 8 dereferenceable(32) %8, ptr noundef nonnull @.str.33, ptr noundef nonnull align 1 dereferenceable(1) %9)
          to label %33 unwind label %35

33:                                               ; preds = %32
  invoke void @_ZN2cv5errorEiRKNSt7__cxx1112basic_stringIcSt11char_traitsIcESaIcEEEPKcS9_i(i32 noundef -215, ptr noundef nonnull align 8 dereferenceable(32) %8, ptr noundef nonnull @__func__._ZN2cv5utils10BufferArea8allocateIiEEvRPT_mt, ptr noundef nonnull @.str.28, i32 noundef 78) #15
          to label %34 unwind label %37

34:                                               ; preds = %33
  unreachable

35:                                               ; preds = %32
  %36 = landingpad { ptr, i32 }
          cleanup
  br label %40

37:                                               ; preds = %33
  %38 = landingpad { ptr, i32 }
          cleanup
  call void @_ZNSt7__cxx1112basic_stringIcSt11char_traitsIcESaIcEED1Ev(ptr noundef nonnull align 8 dereferenceable(32) %8) #16
  br label %40

39:                                               ; preds = %27
  ret void

40:                                               ; preds = %35, %37, %23, %25, %15, %17
  %.sink = phi ptr [ %5, %17 ], [ %5, %15 ], [ %7, %25 ], [ %7, %23 ], [ %9, %37 ], [ %9, %35 ]
  %.pn25.pn = phi { ptr, i32 } [ %18, %17 ], [ %16, %15 ], [ %26, %25 ], [ %24, %23 ], [ %38, %37 ], [ %36, %35 ]
  call void @_ZNSaIcED1Ev(ptr noundef nonnull align 1 dereferenceable(1) %.sink) #16
  resume { ptr, i32 } %.pn25.pn
}